; Function Attrs: mustprogress uwtable
define void @_ZN6icu_7511defaultLSTME11UScriptCodeR10UErrorCode(ptr noalias sret(%"class.icu_75::UnicodeString") align 8 %agg.result, i32 noundef %script, ptr noundef nonnull align 4 dereferenceable(4) %status) local_unnamed_addr #1 personality ptr @__gxx_personality_v0 {
entry:
  %len.i = alloca i32, align 4
  %agg.tmp.i = alloca %"class.icu_75::ConstChar16Ptr", align 8
  %call = tail call ptr @ures_open_75(ptr noundef nonnull @.str.8, ptr noundef nonnull @.str.9, ptr noundef nonnull %status)
  %call1 = tail call ptr @ures_getByKeyWithFallback_75(ptr noundef %call, ptr noundef nonnull @.str.10, ptr noundef %call, ptr noundef nonnull %status)
  %call2 = tail call ptr @uscript_getShortName_75(i32 noundef %script)
  tail call void @llvm.experimental.noalias.scope.decl(metadata !64)
  call void @llvm.lifetime.start.p0(i64 4, ptr nonnull %len.i)
  call void @llvm.lifetime.start.p0(i64 8, ptr nonnull %agg.tmp.i)
  store ptr getelementptr inbounds ({ [13 x ptr] }, ptr @_ZTVN6icu_7513UnicodeStringE, i64 0, i32 0, i64 2), ptr %agg.result, align 8, !alias.scope !64
  %fUnion2.i.i = getelementptr inbounds i8, ptr %agg.result, i64 8
  store i16 2, ptr %fUnion2.i.i, align 8, !alias.scope !64
  store i32 0, ptr %len.i, align 4, !noalias !64
  %call.i = invoke ptr @ures_getStringByKey_75(ptr noundef %call1, ptr noundef %call2, ptr noundef nonnull %len.i, ptr noundef nonnull %status)
          to label %invoke.cont3.i unwind label %lpad.i, !noalias !64

invoke.cont3.i:                                   ; preds = %entry
  call void asm sideeffect "", "rm,~{memory},~{dirflag},~{fpsr},~{flags}"(ptr %call.i) #20, !noalias !64, !srcloc !67
  %0 = load i32, ptr %status, align 4, !noalias !64
  %cmp.i.i = icmp sgt i32 %0, 0
  br i1 %cmp.i.i, label %if.else.i, label %if.then.i

if.then.i:                                        ; preds = %invoke.cont3.i
  store ptr %call.i, ptr %agg.tmp.i, align 8, !noalias !64
  %1 = load i32, ptr %len.i, align 4, !noalias !64
  %call9.i = invoke noundef nonnull align 8 dereferenceable(64) ptr @_ZN6icu_7513UnicodeString5setToEaNS_14ConstChar16PtrEi(ptr noundef nonnull align 8 dereferenceable(64) %agg.result, i8 noundef signext 1, ptr noundef nonnull %agg.tmp.i, i32 noundef %1)
          to label %invoke.cont8.i unwind label %lpad7.i

invoke.cont8.i:                                   ; preds = %if.then.i
  %2 = load ptr, ptr %agg.tmp.i, align 8, !noalias !64
  call void asm sideeffect "", "rm,~{memory},~{dirflag},~{fpsr},~{flags}"(ptr %2) #20, !srcloc !67
  br label %_ZN6icu_7526ures_getUnicodeStringByKeyEPK15UResourceBundlePKcP10UErrorCode.exit

lpad.i:                                           ; preds = %if.else.i, %entry
  %3 = landingpad { ptr, i32 }
          cleanup
  br label %common.resume

lpad7.i:                                          ; preds = %if.then.i
  %4 = landingpad { ptr, i32 }
          cleanup
  %5 = load ptr, ptr %agg.tmp.i, align 8, !noalias !64
  call void asm sideeffect "", "rm,~{memory},~{dirflag},~{fpsr},~{flags}"(ptr %5) #20, !srcloc !67
  br label %common.resume

if.else.i:                                        ; preds = %invoke.cont3.i
  invoke void @_ZN6icu_7513UnicodeString10setToBogusEv(ptr noundef nonnull align 8 dereferenceable(64) %agg.result)
          to label %_ZN6icu_7526ures_getUnicodeStringByKeyEPK15UResourceBundlePKcP10UErrorCode.exit unwind label %lpad.i

common.resume:                                    ; preds = %lpad.i, %lpad7.i, %lpad
  %common.resume.op = phi { ptr, i32 } [ %6, %lpad ], [ %4, %lpad7.i ], [ %3, %lpad.i ]
  call void @_ZN6icu_7513UnicodeStringD1Ev(ptr noundef nonnull align 8 dereferenceable(64) %agg.result) #20
  resume { ptr, i32 } %common.resume.op

_ZN6icu_7526ures_getUnicodeStringByKeyEPK15UResourceBundlePKcP10UErrorCode.exit: ; preds = %invoke.cont8.i, %if.else.i
  call void @llvm.lifetime.end.p0(i64 4, ptr nonnull %len.i)
  call void @llvm.lifetime.end.p0(i64 8, ptr nonnull %agg.tmp.i)
  invoke void @ures_close_75(ptr noundef %call1)
          to label %nrvo.skipdtor unwind label %lpad

lpad:                                             ; preds = %_ZN6icu_7526ures_getUnicodeStringByKeyEPK15UResourceBundlePKcP10UErrorCode.exit
  %6 = landingpad { ptr, i32 }
          cleanup
  br label %common.resume

nrvo.skipdtor:                                    ; preds = %_ZN6icu_7526ures_getUnicodeStringByKeyEPK15UResourceBundlePKcP10UErrorCode.exit
  ret void
}